ccopy_reg
_reconstructor
p0
(csklearn.feature_extraction.dict_vectorizer
DictVectorizer
p1
c__builtin__
object
p2
Ntp3
Rp4
(dp5
S'sort'
p6
I01
sS'feature_names_'
p7
(lp8
S'+1:contains-hyphen'
p9
aS'+1:contains_digit'
p10
aS'+1:is_cc'
p11
aS'+1:is_city'
p12
aS'+1:is_first_name'
p13
aS'+1:is_last_name'
p14
aS'+1:is_lower'
p15
aS'+1:is_mixed_case'
p16
aS'+1:is_month'
p17
aS'+1:is_school'
p18
aS'+1:is_state'
p19
aS'+1:is_year'
p20
aS'+1:postag=$'
p21
aS'+1:postag=:'
p22
aS'+1:postag=CC'
p23
aS'+1:postag=CD'
p24
aS'+1:postag=DT'
p25
aS'+1:postag=FW'
p26
aS'+1:postag=IN'
p27
aS'+1:postag=JJ'
p28
aS'+1:postag=JJR'
p29
aS'+1:postag=JJS'
p30
aS'+1:postag=MD'
p31
aS'+1:postag=NN'
p32
aS'+1:postag=NNP'
p33
aS'+1:postag=NNPS'
p34
aS'+1:postag=NNS'
p35
aS'+1:postag=PDT'
p36
aS'+1:postag=PRP'
p37
aS'+1:postag=PRP$'
p38
aS'+1:postag=RB'
p39
aS'+1:postag=RBR'
p40
aS'+1:postag=RBS'
p41
aS'+1:postag=RP'
p42
aS'+1:postag=TO'
p43
aS'+1:postag=VB'
p44
aS'+1:postag=VBD'
p45
aS'+1:postag=VBG'
p46
aS'+1:postag=VBN'
p47
aS'+1:postag=VBP'
p48
aS'+1:postag=VBZ'
p49
aS'+1:postag=WDT'
p50
aS'+1:postag=WP'
p51
aS'+1:postag=WP$'
p52
aS'+1:postag=WRB'
p53
aS'+1:postag[:2]=$'
p54
aS'+1:postag[:2]=:'
p55
aS'+1:postag[:2]=CC'
p56
aS'+1:postag[:2]=CD'
p57
aS'+1:postag[:2]=DT'
p58
aS'+1:postag[:2]=FW'
p59
aS'+1:postag[:2]=IN'
p60
aS'+1:postag[:2]=JJ'
p61
aS'+1:postag[:2]=MD'
p62
aS'+1:postag[:2]=NN'
p63
aS'+1:postag[:2]=PD'
p64
aS'+1:postag[:2]=PR'
p65
aS'+1:postag[:2]=RB'
p66
aS'+1:postag[:2]=RP'
p67
aS'+1:postag[:2]=TO'
p68
aS'+1:postag[:2]=VB'
p69
aS'+1:postag[:2]=WD'
p70
aS'+1:postag[:2]=WP'
p71
aS'+1:postag[:2]=WR'
p72
aS'+1:word.istitle()'
p73
aS'+1:word.isupper()'
p74
aS'+1:word_len'
p75
aS'-1:contains-hyphen'
p76
aS'-1:contains_digit'
p77
aS'-1:is_cc'
p78
aS'-1:is_city'
p79
aS'-1:is_first_name'
p80
aS'-1:is_last_name'
p81
aS'-1:is_lower'
p82
aS'-1:is_mixed_case'
p83
aS'-1:is_month'
p84
aS'-1:is_school'
p85
aS'-1:is_state'
p86
aS'-1:is_year'
p87
aS'-1:postag=$'
p88
aS'-1:postag=:'
p89
aS'-1:postag=CC'
p90
aS'-1:postag=CD'
p91
aS'-1:postag=DT'
p92
aS'-1:postag=FW'
p93
aS'-1:postag=IN'
p94
aS'-1:postag=JJ'
p95
aS'-1:postag=JJR'
p96
aS'-1:postag=JJS'
p97
aS'-1:postag=MD'
p98
aS'-1:postag=NN'
p99
aS'-1:postag=NNP'
p100
aS'-1:postag=NNPS'
p101
aS'-1:postag=NNS'
p102
aS'-1:postag=PDT'
p103
aS'-1:postag=PRP'
p104
aS'-1:postag=PRP$'
p105
aS'-1:postag=RB'
p106
aS'-1:postag=RBR'
p107
aS'-1:postag=RBS'
p108
aS'-1:postag=RP'
p109
aS'-1:postag=TO'
p110
aS'-1:postag=VB'
p111
aS'-1:postag=VBD'
p112
aS'-1:postag=VBG'
p113
aS'-1:postag=VBN'
p114
aS'-1:postag=VBP'
p115
aS'-1:postag=VBZ'
p116
aS'-1:postag=WDT'
p117
aS'-1:postag=WP'
p118
aS'-1:postag=WP$'
p119
aS'-1:postag=WRB'
p120
aS'-1:postag[:2]=$'
p121
aS'-1:postag[:2]=:'
p122
aS'-1:postag[:2]=CC'
p123
aS'-1:postag[:2]=CD'
p124
aS'-1:postag[:2]=DT'
p125
aS'-1:postag[:2]=FW'
p126
aS'-1:postag[:2]=IN'
p127
aS'-1:postag[:2]=JJ'
p128
aS'-1:postag[:2]=MD'
p129
aS'-1:postag[:2]=NN'
p130
aS'-1:postag[:2]=PD'
p131
aS'-1:postag[:2]=PR'
p132
aS'-1:postag[:2]=RB'
p133
aS'-1:postag[:2]=RP'
p134
aS'-1:postag[:2]=TO'
p135
aS'-1:postag[:2]=VB'
p136
aS'-1:postag[:2]=WD'
p137
aS'-1:postag[:2]=WP'
p138
aS'-1:postag[:2]=WR'
p139
aS'-1:word.istitle()'
p140
aS'-1:word.isupper()'
p141
aS'-1:word_len'
p142
aS'BOS'
p143
aS'EOS'
p144
aS'bias'
p145
aS'contains-hyphen'
p146
aS'contains_/'
p147
aS'contains_digit'
p148
aS'is_cc'
p149
aS'is_city'
p150
aS'is_first_name'
p151
aS'is_last_name'
p152
aS'is_lower'
p153
aS'is_mixed_case'
p154
aS'is_month'
p155
aS'is_school'
p156
aS'is_state'
p157
aS'is_title_format'
p158
aS'is_uppercase'
p159
aS'is_year'
p160
aS'postag=$'
p161
aS'postag=:'
p162
aS'postag=CC'
p163
aS'postag=CD'
p164
aS'postag=DT'
p165
aS'postag=FW'
p166
aS'postag=IN'
p167
aS'postag=JJ'
p168
aS'postag=JJR'
p169
aS'postag=JJS'
p170
aS'postag=MD'
p171
aS'postag=NN'
p172
aS'postag=NNP'
p173
aS'postag=NNPS'
p174
aS'postag=NNS'
p175
aS'postag=PDT'
p176
aS'postag=PRP'
p177
aS'postag=PRP$'
p178
aS'postag=RB'
p179
aS'postag=RBR'
p180
aS'postag=RBS'
p181
aS'postag=RP'
p182
aS'postag=TO'
p183
aS'postag=VB'
p184
aS'postag=VBD'
p185
aS'postag=VBG'
p186
aS'postag=VBN'
p187
aS'postag=VBP'
p188
aS'postag=VBZ'
p189
aS'postag=WDT'
p190
aS'postag=WP'
p191
aS'postag=WP$'
p192
aS'postag=WRB'
p193
aS'postag[:2]=$'
p194
aS'postag[:2]=:'
p195
aS'postag[:2]=CC'
p196
aS'postag[:2]=CD'
p197
aS'postag[:2]=DT'
p198
aS'postag[:2]=FW'
p199
aS'postag[:2]=IN'
p200
aS'postag[:2]=JJ'
p201
aS'postag[:2]=MD'
p202
aS'postag[:2]=NN'
p203
aS'postag[:2]=PD'
p204
aS'postag[:2]=PR'
p205
aS'postag[:2]=RB'
p206
aS'postag[:2]=RP'
p207
aS'postag[:2]=TO'
p208
aS'postag[:2]=VB'
p209
aS'postag[:2]=WD'
p210
aS'postag[:2]=WP'
p211
aS'postag[:2]=WR'
p212
aS'word_len'
p213
asS'dtype'
p214
cnumpy
float64
p215
sS'vocabulary_'
p216
(dp217
g43
I34
sg137
I128
sg143
I134
sg125
I116
sg144
I135
sg203
I194
sg118
I109
sg166
I157
sg139
I130
sg206
I197
sg138
I129
sg79
I70
sg171
I162
sg157
I148
sg120
I111
sg54
I45
sg142
I133
sg55
I46
sg165
I156
sg60
I51
sg146
I137
sg104
I95
sg110
I101
sg50
I41
sg80
I71
sg135
I126
sg153
I144
sg107
I98
sg27
I18
sg178
I169
sg199
I190
sg84
I75
sg35
I26
sg33
I24
sg167
I158
sg51
I42
sg121
I112
sg92
I83
sg82
I73
sg194
I185
sg190
I181
sg61
I52
sg36
I27
sg67
I58
sg149
I140
sg151
I142
sg202
I193
sg66
I57
sg64
I55
sg99
I90
sg182
I173
sg32
I23
sg126
I117
sg176
I167
sg29
I20
sg17
I8
sg127
I118
sg70
I61
sg168
I159
sg111
I102
sg18
I9
sg155
I146
sg71
I62
sg72
I63
sg160
I151
sg158
I149
sg109
I100
sg141
I132
sg44
I35
sg116
I107
sg204
I195
sg147
I138
sg193
I184
sg58
I49
sg205
I196
sg83
I74
sg177
I168
sg200
I191
sg81
I72
sg96
I87
sg97
I88
sg175
I166
sg173
I164
sg93
I84
sg213
I204
sg87
I78
sg130
I121
sg38
I29
sg9
I0
sg52
I43
sg163
I154
sg136
I127
sg164
I155
sg103
I94
sg101
I92
sg148
I139
sg105
I96
sg150
I141
sg186
I177
sg185
I176
sg62
I53
sg187
I178
sg12
I3
sg188
I179
sg13
I4
sg189
I180
sg201
I192
sg108
I99
sg25
I16
sg39
I30
sg78
I69
sg89
I80
sg179
I170
sg191
I182
sg122
I113
sg40
I31
sg65
I56
sg75
I66
sg181
I172
sg180
I171
sg73
I64
sg24
I15
sg10
I1
sg117
I108
sg23
I14
sg59
I50
sg63
I54
sg14
I5
sg207
I198
sg37
I28
sg197
I188
sg196
I187
sg86
I77
sg31
I22
sg94
I85
sg85
I76
sg26
I17
sg156
I147
sg210
I201
sg88
I79
sg152
I143
sg69
I60
sg114
I105
sg19
I10
sg132
I123
sg112
I103
sg113
I104
sg131
I122
sg154
I145
sg115
I106
sg183
I174
sg53
I44
sg98
I89
sg74
I65
sg184
I175
sg34
I25
sg28
I19
sg134
I125
sg145
I136
sg170
I161
sg169
I160
sg11
I2
sg57
I48
sg212
I203
sg95
I86
sg211
I202
sg172
I163
sg56
I47
sg22
I13
sg195
I186
sg129
I120
sg209
I200
sg77
I68
sg30
I21
sg140
I131
sg128
I119
sg21
I12
sg16
I7
sg15
I6
sg100
I91
sg208
I199
sg102
I93
sg123
I114
sg91
I82
sg90
I81
sg124
I115
sg162
I153
sg161
I152
sg192
I183
sg76
I67
sg106
I97
sg20
I11
sg41
I32
sg42
I33
sg47
I38
sg159
I150
sg68
I59
sg174
I165
sg198
I189
sg119
I110
sg46
I37
sg45
I36
sg49
I40
sg48
I39
sg133
I124
ssS'separator'
p218
S'='
p219
sS'sparse'
p220
I00
sS'_sklearn_version'
p221
S'0.18.2'
p222
sb.